; Function Attrs: mustprogress nounwind uwtable
define void @_ZN3zmq6xsub_tD2Ev(ptr noundef nonnull align 8 dereferenceable(2028) %this) unnamed_addr #5 align 2 personality ptr @__gxx_personality_v0 {
entry:
  store ptr getelementptr inbounds ({ [47 x ptr], [4 x ptr], [7 x ptr], [8 x ptr] }, ptr @_ZTVN3zmq6xsub_tE, i64 0, i32 0, i64 2), ptr %this, align 8
  %add.ptr = getelementptr inbounds i8, ptr %this, i64 1448
  store ptr getelementptr inbounds ({ [47 x ptr], [4 x ptr], [7 x ptr], [8 x ptr] }, ptr @_ZTVN3zmq6xsub_tE, i64 0, i32 1, i64 2), ptr %add.ptr, align 8
  %add.ptr2 = getelementptr inbounds i8, ptr %this, i64 1464
  store ptr getelementptr inbounds ({ [47 x ptr], [4 x ptr], [7 x ptr], [8 x ptr] }, ptr @_ZTVN3zmq6xsub_tE, i64 0, i32 2, i64 2), ptr %add.ptr2, align 8
  %add.ptr3 = getelementptr inbounds i8, ptr %this, i64 1472
  store ptr getelementptr inbounds ({ [47 x ptr], [4 x ptr], [7 x ptr], [8 x ptr] }, ptr @_ZTVN3zmq6xsub_tE, i64 0, i32 3, i64 2), ptr %add.ptr3, align 8
  %_message = getelementptr inbounds i8, ptr %this, i64 1960
  %call = invoke noundef i32 @_ZN3zmq5msg_t5closeEv(ptr noundef nonnull align 8 dereferenceable(64) %_message)
          to label %invoke.cont unwind label %terminate.lpad

invoke.cont:                                      ; preds = %entry
  %cmp.not = icmp eq i32 %call, 0
  br i1 %cmp.not, label %do.end, label %if.then

if.then:                                          ; preds = %invoke.cont
  %call4 = tail call ptr @__errno_location() #12
  %0 = load i32, ptr %call4, align 4
  %call5 = tail call ptr @strerror(i32 noundef %0) #13
  %1 = load ptr, ptr @stderr, align 8
  %call7 = tail call i32 (ptr, ptr, ...) @fprintf(ptr noundef %1, ptr noundef nonnull @.str, ptr noundef %call5, ptr noundef nonnull @.str.1, i32 noundef 32) #14
  %2 = load ptr, ptr @stderr, align 8
  %call9 = tail call i32 @fflush(ptr noundef %2)
  invoke void @_ZN3zmq9zmq_abortEPKc(ptr noundef %call5)
          to label %do.end unwind label %terminate.lpad

do.end:                                           ; preds = %if.then, %invoke.cont
  %_subscriptions = getelementptr inbounds i8, ptr %this, i64 1936
  tail call void @_ZN3zmq12radix_tree_tD1Ev(ptr noundef nonnull align 8 dereferenceable(16) %_subscriptions) #13
  %_dist = getelementptr inbounds i8, ptr %this, i64 1880
  tail call void @_ZN3zmq6dist_tD1Ev(ptr noundef nonnull align 8 dereferenceable(49) %_dist) #13
  %_fq = getelementptr inbounds i8, ptr %this, i64 1832
  tail call void @_ZN3zmq4fq_tD1Ev(ptr noundef nonnull align 8 dereferenceable(41) %_fq) #13
  tail call void @_ZN3zmq13socket_base_tD2Ev(ptr noundef nonnull align 8 dereferenceable(1825) %this) #13
  ret void

terminate.lpad:                                   ; preds = %if.then, %entry
  %3 = landingpad { ptr, i32 }
          catch ptr null
  %4 = extractvalue { ptr, i32 } %3, 0
  tail call void @__clang_call_terminate(ptr %4) #15
  unreachable
}